target datalayout = "e-m:e-p270:32:32-p271:32:32-p272:64:64-i64:64-i128:128-f80:128-n8:16:32:64-S128"
target triple = "x86_64-pc-linux-gnu"

%struct.options_data_t = type { ptr, ptr, ptr, ptr, ptr, ptr, ptr, ptr, ptr, ptr, ptr, ptr, ptr, ptr, ptr, ptr, ptr, ptr, ptr, ptr }

@default_data_idx = internal global i32 -1, align 4
@options_data = internal global ptr null, align 8
@parse_options_idx = internal global i32 -1, align 4
@.str.92 = private unnamed_addr constant [1 x i8] zeroinitializer, align 1

; Function Attrs: nounwind uwtable
define internal void @options_data_init(ptr noundef %0) #0 {
  %2 = alloca ptr, align 8
  store ptr %0, ptr %2, align 8, !tbaa !19
  %3 = call noalias ptr @malloc(i64 noundef 8) #12
  %4 = load ptr, ptr %2, align 8, !tbaa !19
  %5 = getelementptr inbounds nuw %struct.options_data_t, ptr %4, i32 0, i32 0
  store ptr %3, ptr %5, align 8, !tbaa !44
  %6 = load ptr, ptr %2, align 8, !tbaa !19
  %7 = getelementptr inbounds nuw %struct.options_data_t, ptr %6, i32 0, i32 0
  %8 = load ptr, ptr %7, align 8, !tbaa !44
  %9 = getelementptr inbounds ptr, ptr %8, i64 0
  store ptr null, ptr %9, align 8, !tbaa !11
  %10 = load ptr, ptr %2, align 8, !tbaa !19
  %11 = getelementptr inbounds nuw %struct.options_data_t, ptr %10, i32 0, i32 1
  store ptr null, ptr %11, align 8, !tbaa !26
  %12 = load ptr, ptr %2, align 8, !tbaa !19
  %13 = getelementptr inbounds nuw %struct.options_data_t, ptr %12, i32 0, i32 7
  store ptr null, ptr %13, align 8, !tbaa !39
  %14 = load ptr, ptr %2, align 8, !tbaa !19
  %15 = getelementptr inbounds nuw %struct.options_data_t, ptr %14, i32 0, i32 2
  store ptr null, ptr %15, align 8, !tbaa !34
  %16 = load ptr, ptr %2, align 8, !tbaa !19
  %17 = getelementptr inbounds nuw %struct.options_data_t, ptr %16, i32 0, i32 3
  store ptr null, ptr %17, align 8, !tbaa !21
  %18 = load ptr, ptr %2, align 8, !tbaa !19
  %19 = getelementptr inbounds nuw %struct.options_data_t, ptr %18, i32 0, i32 4
  store ptr null, ptr %19, align 8, !tbaa !35
  %20 = load ptr, ptr %2, align 8, !tbaa !19
  %21 = getelementptr inbounds nuw %struct.options_data_t, ptr %20, i32 0, i32 5
  store ptr null, ptr %21, align 8, !tbaa !23
  %22 = load ptr, ptr %2, align 8, !tbaa !19
  %23 = getelementptr inbounds nuw %struct.options_data_t, ptr %22, i32 0, i32 6
  store ptr null, ptr %23, align 8, !tbaa !24
  %24 = call noalias ptr @malloc(i64 noundef 8) #12
  %25 = load ptr, ptr %2, align 8, !tbaa !19
  %26 = getelementptr inbounds nuw %struct.options_data_t, ptr %25, i32 0, i32 8
  store ptr %24, ptr %26, align 8, !tbaa !29
  %27 = load ptr, ptr %2, align 8, !tbaa !19
  %28 = getelementptr inbounds nuw %struct.options_data_t, ptr %27, i32 0, i32 8
  %29 = load ptr, ptr %28, align 8, !tbaa !29
  %30 = getelementptr inbounds ptr, ptr %29, i64 0
  store ptr null, ptr %30, align 8, !tbaa !11
  %31 = call noalias ptr @malloc(i64 noundef 8) #12
  %32 = load ptr, ptr %2, align 8, !tbaa !19
  %33 = getelementptr inbounds nuw %struct.options_data_t, ptr %32, i32 0, i32 9
  store ptr %31, ptr %33, align 8, !tbaa !41
  %34 = load ptr, ptr %2, align 8, !tbaa !19
  %35 = getelementptr inbounds nuw %struct.options_data_t, ptr %34, i32 0, i32 9
  %36 = load ptr, ptr %35, align 8, !tbaa !41
  %37 = getelementptr inbounds ptr, ptr %36, i64 0
  store ptr null, ptr %37, align 8, !tbaa !11
  %38 = call noalias ptr @malloc(i64 noundef 8) #12
  %39 = load ptr, ptr %2, align 8, !tbaa !19
  %40 = getelementptr inbounds nuw %struct.options_data_t, ptr %39, i32 0, i32 10
  store ptr %38, ptr %40, align 8, !tbaa !40
  %41 = load ptr, ptr %2, align 8, !tbaa !19
  %42 = getelementptr inbounds nuw %struct.options_data_t, ptr %41, i32 0, i32 10
  %43 = load ptr, ptr %42, align 8, !tbaa !40
  %44 = getelementptr inbounds ptr, ptr %43, i64 0
  store ptr null, ptr %44, align 8, !tbaa !11
  %45 = call noalias ptr @malloc(i64 noundef 8) #12
  %46 = load ptr, ptr %2, align 8, !tbaa !19
  %47 = getelementptr inbounds nuw %struct.options_data_t, ptr %46, i32 0, i32 11
  store ptr %45, ptr %47, align 8, !tbaa !30
  %48 = load ptr, ptr %2, align 8, !tbaa !19
  %49 = getelementptr inbounds nuw %struct.options_data_t, ptr %48, i32 0, i32 11
  %50 = load ptr, ptr %49, align 8, !tbaa !30
  %51 = getelementptr inbounds ptr, ptr %50, i64 0
  store ptr null, ptr %51, align 8, !tbaa !11
  %52 = call noalias ptr @malloc(i64 noundef 8) #12
  %53 = load ptr, ptr %2, align 8, !tbaa !19
  %54 = getelementptr inbounds nuw %struct.options_data_t, ptr %53, i32 0, i32 12
  store ptr %52, ptr %54, align 8, !tbaa !31
  %55 = load ptr, ptr %2, align 8, !tbaa !19
  %56 = getelementptr inbounds nuw %struct.options_data_t, ptr %55, i32 0, i32 12
  %57 = load ptr, ptr %56, align 8, !tbaa !31
  %58 = getelementptr inbounds ptr, ptr %57, i64 0
  store ptr null, ptr %58, align 8, !tbaa !11
  %59 = call noalias ptr @malloc(i64 noundef 8) #12
  %60 = load ptr, ptr %2, align 8, !tbaa !19
  %61 = getelementptr inbounds nuw %struct.options_data_t, ptr %60, i32 0, i32 13
  store ptr %59, ptr %61, align 8, !tbaa !32
  %62 = load ptr, ptr %2, align 8, !tbaa !19
  %63 = getelementptr inbounds nuw %struct.options_data_t, ptr %62, i32 0, i32 13
  %64 = load ptr, ptr %63, align 8, !tbaa !32
  %65 = getelementptr inbounds ptr, ptr %64, i64 0
  store ptr null, ptr %65, align 8, !tbaa !11
  %66 = call noalias ptr @malloc(i64 noundef 8) #12
  %67 = load ptr, ptr %2, align 8, !tbaa !19
  %68 = getelementptr inbounds nuw %struct.options_data_t, ptr %67, i32 0, i32 14
  store ptr %66, ptr %68, align 8, !tbaa !33
  %69 = load ptr, ptr %2, align 8, !tbaa !19
  %70 = getelementptr inbounds nuw %struct.options_data_t, ptr %69, i32 0, i32 14
  %71 = load ptr, ptr %70, align 8, !tbaa !33
  %72 = getelementptr inbounds ptr, ptr %71, i64 0
  store ptr null, ptr %72, align 8, !tbaa !11
  %73 = load ptr, ptr %2, align 8, !tbaa !19
  %74 = getelementptr inbounds nuw %struct.options_data_t, ptr %73, i32 0, i32 15
  store ptr null, ptr %74, align 8, !tbaa !51
  %75 = load ptr, ptr %2, align 8, !tbaa !19
  %76 = getelementptr inbounds nuw %struct.options_data_t, ptr %75, i32 0, i32 16
  store ptr null, ptr %76, align 8, !tbaa !52
  %77 = load ptr, ptr %2, align 8, !tbaa !19
  %78 = getelementptr inbounds nuw %struct.options_data_t, ptr %77, i32 0, i32 17
  store ptr null, ptr %78, align 8, !tbaa !25
  %79 = load ptr, ptr %2, align 8, !tbaa !19
  %80 = getelementptr inbounds nuw %struct.options_data_t, ptr %79, i32 0, i32 18
  store ptr null, ptr %80, align 8, !tbaa !53
  %81 = load ptr, ptr %2, align 8, !tbaa !19
  %82 = getelementptr inbounds nuw %struct.options_data_t, ptr %81, i32 0, i32 19
  store ptr null, ptr %82, align 8, !tbaa !28
  ret void
}

; Function Attrs: nounwind uwtable
define internal void @options_data_expand(ptr noundef %0) #0 {
  %2 = alloca ptr, align 8
  %3 = alloca ptr, align 8
  store ptr %0, ptr %2, align 8, !tbaa !11
  %4 = load i32, ptr @parse_options_idx, align 4, !tbaa !4
  %5 = add nsw i32 %4, 1
  store i32 %5, ptr @parse_options_idx, align 4, !tbaa !4
  %6 = load ptr, ptr @options_data, align 8, !tbaa !19
  %7 = load i32, ptr @parse_options_idx, align 4, !tbaa !4
  %8 = add nsw i32 %7, 1
  %9 = sext i32 %8 to i64
  %10 = mul i64 160, %9
  %11 = call ptr @realloc(ptr noundef %6, i64 noundef %10) #14
  store ptr %11, ptr @options_data, align 8, !tbaa !19
  %12 = load ptr, ptr @options_data, align 8, !tbaa !19
  %13 = load i32, ptr @parse_options_idx, align 4, !tbaa !4
  %14 = sext i32 %13 to i64
  %15 = getelementptr inbounds %struct.options_data_t, ptr %12, i64 %14
  call void @options_data_init(ptr noundef %15)
  %16 = load ptr, ptr %2, align 8, !tbaa !11
  %17 = icmp ne ptr null, %16
  br i1 %17, label %18, label %40

18:                                               ; preds = %1
  %19 = load ptr, ptr %2, align 8, !tbaa !11
  %20 = call i32 @strcmp(ptr noundef %19, ptr noundef @.str.92) #11
  %21 = icmp ne i32 0, %20
  br i1 %21, label %22, label %40

22:                                               ; preds = %18
  call void @llvm.lifetime.start.p0(i64 8, ptr %3) #9
  %23 = load ptr, ptr %2, align 8, !tbaa !11
  %24 = call ptr @PMIx_Argv_split(ptr noundef %23, i32 noundef 59)
  store ptr %24, ptr %3, align 8, !tbaa !8
  %25 = load ptr, ptr @options_data, align 8, !tbaa !19
  %26 = load i32, ptr @parse_options_idx, align 4, !tbaa !4
  %27 = sext i32 %26 to i64
  %28 = getelementptr inbounds %struct.options_data_t, ptr %25, i64 %27
  %29 = getelementptr inbounds nuw %struct.options_data_t, ptr %28, i32 0, i32 0
  %30 = load ptr, ptr @options_data, align 8, !tbaa !19
  %31 = load i32, ptr @parse_options_idx, align 4, !tbaa !4
  %32 = sext i32 %31 to i64
  %33 = getelementptr inbounds %struct.options_data_t, ptr %30, i64 %32
  %34 = getelementptr inbounds nuw %struct.options_data_t, ptr %33, i32 0, i32 0
  %35 = load ptr, ptr %34, align 8, !tbaa !44
  %36 = call i32 @PMIx_Argv_count(ptr noundef %35)
  %37 = load ptr, ptr %3, align 8, !tbaa !8
  %38 = call i32 @pmix_argv_insert(ptr noundef %29, i32 noundef %36, ptr noundef %37)
  %39 = load ptr, ptr %3, align 8, !tbaa !8
  call void @PMIx_Argv_free(ptr noundef %39)
  call void @llvm.lifetime.end.p0(i64 8, ptr %3) #9
  br label %53

40:                                               ; preds = %18, %1
  %41 = load ptr, ptr @options_data, align 8, !tbaa !19
  %42 = load i32, ptr @parse_options_idx, align 4, !tbaa !4
  %43 = sext i32 %42 to i64
  %44 = getelementptr inbounds %struct.options_data_t, ptr %41, i64 %43
  %45 = getelementptr inbounds nuw %struct.options_data_t, ptr %44, i32 0, i32 0
  %46 = load ptr, ptr %45, align 8, !tbaa !44
  call void @free(ptr noundef %46) #9
  %47 = load ptr, ptr @options_data, align 8, !tbaa !19
  %48 = load i32, ptr @parse_options_idx, align 4, !tbaa !4
  %49 = sext i32 %48 to i64
  %50 = getelementptr inbounds %struct.options_data_t, ptr %47, i64 %49
  %51 = getelementptr inbounds nuw %struct.options_data_t, ptr %50, i32 0, i32 0
  store ptr null, ptr %51, align 8, !tbaa !44
  %52 = load i32, ptr @parse_options_idx, align 4, !tbaa !4
  store i32 %52, ptr @default_data_idx, align 4, !tbaa !4
  br label %53

53:                                               ; preds = %40, %22
  ret void
}