; Function Attrs: nounwind uwtable
define internal fastcc void @options_data_expand(ptr noundef %0) unnamed_addr #0 {
  %2 = load i32, ptr @parse_options_idx, align 4, !tbaa !4
  %3 = add nsw i32 %2, 1
  store i32 %3, ptr @parse_options_idx, align 4, !tbaa !4
  %4 = load ptr, ptr @options_data, align 8, !tbaa !17
  %5 = add nsw i32 %2, 2
  %6 = sext i32 %5 to i64
  %7 = mul nsw i64 %6, 160
  %8 = tail call ptr @realloc(ptr noundef %4, i64 noundef %7) #22
  store ptr %8, ptr @options_data, align 8, !tbaa !17
  %9 = sext i32 %3 to i64
  %10 = getelementptr inbounds %struct.options_data_t, ptr %8, i64 %9
  %11 = tail call noalias dereferenceable_or_null(8) ptr @malloc(i64 noundef 8) #20
  store ptr %11, ptr %10, align 8, !tbaa !19
  store ptr null, ptr %11, align 8, !tbaa !13
  %12 = getelementptr inbounds nuw i8, ptr %10, i64 8
  %13 = tail call noalias dereferenceable_or_null(8) ptr @malloc(i64 noundef 8) #20
  %14 = getelementptr inbounds nuw i8, ptr %10, i64 64
  tail call void @llvm.memset.p0.i64(ptr noundef nonnull align 8 dereferenceable(56) %12, i8 0, i64 56, i1 false)
  store ptr %13, ptr %14, align 8, !tbaa !33
  store ptr null, ptr %13, align 8, !tbaa !13
  %15 = tail call noalias dereferenceable_or_null(8) ptr @malloc(i64 noundef 8) #20
  %16 = getelementptr inbounds nuw i8, ptr %10, i64 72
  store ptr %15, ptr %16, align 8, !tbaa !43
  store ptr null, ptr %15, align 8, !tbaa !13
  %17 = tail call noalias dereferenceable_or_null(8) ptr @malloc(i64 noundef 8) #20
  %18 = getelementptr inbounds nuw i8, ptr %10, i64 80
  store ptr %17, ptr %18, align 8, !tbaa !42
  store ptr null, ptr %17, align 8, !tbaa !13
  %19 = tail call noalias dereferenceable_or_null(8) ptr @malloc(i64 noundef 8) #20
  %20 = getelementptr inbounds nuw i8, ptr %10, i64 88
  store ptr %19, ptr %20, align 8, !tbaa !34
  store ptr null, ptr %19, align 8, !tbaa !13
  %21 = tail call noalias dereferenceable_or_null(8) ptr @malloc(i64 noundef 8) #20
  %22 = getelementptr inbounds nuw i8, ptr %10, i64 96
  store ptr %21, ptr %22, align 8, !tbaa !35
  store ptr null, ptr %21, align 8, !tbaa !13
  %23 = tail call noalias dereferenceable_or_null(8) ptr @malloc(i64 noundef 8) #20
  %24 = getelementptr inbounds nuw i8, ptr %10, i64 104
  store ptr %23, ptr %24, align 8, !tbaa !36
  store ptr null, ptr %23, align 8, !tbaa !13
  %25 = tail call noalias dereferenceable_or_null(8) ptr @malloc(i64 noundef 8) #20
  %26 = getelementptr inbounds nuw i8, ptr %10, i64 112
  store ptr %25, ptr %26, align 8, !tbaa !37
  store ptr null, ptr %25, align 8, !tbaa !13
  %27 = getelementptr inbounds nuw i8, ptr %10, i64 120
  tail call void @llvm.memset.p0.i64(ptr noundef nonnull align 8 dereferenceable(40) %27, i8 0, i64 40, i1 false)
  %.not = icmp eq ptr %0, null
  br i1 %.not, label %38, label %28

28:                                               ; preds = %1
  %strcmpload = load i8, ptr %0, align 1
  %.not5 = icmp eq i8 %strcmpload, 0
  br i1 %.not5, label %38, label %29

29:                                               ; preds = %28
  %30 = tail call ptr @PMIx_Argv_split(ptr noundef nonnull %0, i32 noundef 59) #16
  %31 = load ptr, ptr @options_data, align 8, !tbaa !17
  %32 = load i32, ptr @parse_options_idx, align 4, !tbaa !4
  %33 = sext i32 %32 to i64
  %34 = getelementptr inbounds %struct.options_data_t, ptr %31, i64 %33
  %35 = load ptr, ptr %34, align 8, !tbaa !19
  %36 = tail call i32 @PMIx_Argv_count(ptr noundef %35) #16
  %37 = tail call i32 @pmix_argv_insert(ptr noundef nonnull %34, i32 noundef %36, ptr noundef %30) #16
  tail call void @PMIx_Argv_free(ptr noundef %30) #16
  br label %39

38:                                               ; preds = %28, %1
  tail call void @free(ptr noundef nonnull %11) #16
  store ptr null, ptr %10, align 8, !tbaa !19
  store i32 %3, ptr @default_data_idx, align 4, !tbaa !4
  br label %39

39:                                               ; preds = %38, %29
  ret void
}